target datalayout = "e-m:e-p270:32:32-p271:32:32-p272:64:64-i64:64-i128:128-f80:128-n8:16:32:64-S128"
target triple = "x86_64-pc-linux-gnu"

@.str.4 = private unnamed_addr constant [2 x i8] c"\0A\00", align 1
@.str.5 = private unnamed_addr constant [38 x i8] c"    xilinx_dsp [options] [selection]\0A\00", align 1
@.str.6 = private unnamed_addr constant [78 x i8] c"Pack input registers (A2, A1, B2, B1, C, D, AD; with optional enable/reset),\0A\00", align 1
@.str.7 = private unnamed_addr constant [79 x i8] c"pipeline registers (M; with optional enable/reset), output registers (P; with\0A\00", align 1
@.str.8 = private unnamed_addr constant [80 x i8] c"optional enable/reset), pre-adder and/or post-adder into Xilinx DSP resources.\0A\00", align 1
@.str.9 = private unnamed_addr constant [78 x i8] c"Multiply-accumulate operations using the post-adder with feedback on the 'C'\0A\00", align 1
@.str.10 = private unnamed_addr constant [80 x i8] c"input will be folded into the DSP. In this scenario only, the 'C' input can be\0A\00", align 1
@.str.11 = private unnamed_addr constant [79 x i8] c"used to override the current accumulation result with a new value, which will\0A\00", align 1
@.str.12 = private unnamed_addr constant [73 x i8] c"be added to the multiplier result to form the next accumulation result.\0A\00", align 1
@.str.13 = private unnamed_addr constant [80 x i8] c"Use of the dedicated 'PCOUT' -> 'PCIN' cascade path is detected for 'P' -> 'C'\0A\00", align 1
@.str.14 = private unnamed_addr constant [79 x i8] c"connections (optionally, where 'P' is right-shifted by 17-bits and used as an\0A\00", align 1
@.str.15 = private unnamed_addr constant [77 x i8] c"input to the post-adder -- a pattern common for summing partial products to\0A\00", align 1
@.str.16 = private unnamed_addr constant [80 x i8] c"implement wide multipliers). Limited support also exists for similar cascading\0A\00", align 1
@.str.17 = private unnamed_addr constant [82 x i8] c"for A and B using '[AB]COUT' -> '[AB]CIN'. Currently, cascade chains are limited\0A\00", align 1
@.str.18 = private unnamed_addr constant [80 x i8] c"to a maximum length of 20 cells, corresponding to the smallest Xilinx 7 Series\0A\00", align 1
@.str.19 = private unnamed_addr constant [9 x i8] c"device.\0A\00", align 1
@.str.20 = private unnamed_addr constant [78 x i8] c"This pass is a no-op if the scratchpad variable 'xilinx_dsp.multonly' is set\0A\00", align 1
@.str.21 = private unnamed_addr constant [7 x i8] c"to 1.\0A\00", align 1
@.str.22 = private unnamed_addr constant [78 x i8] c"Experimental feature: addition/subtractions less than 12 or 24 bits with the\0A\00", align 1
@.str.23 = private unnamed_addr constant [77 x i8] c"'(* use_dsp=\22simd\22 *)' attribute attached to the output wire or attached to\0A\00", align 1
@.str.24 = private unnamed_addr constant [79 x i8] c"the add/subtract operator will cause those operations to be implemented using\0A\00", align 1
@.str.25 = private unnamed_addr constant [29 x i8] c"the 'SIMD' feature of DSPs.\0A\00", align 1
@.str.26 = private unnamed_addr constant [79 x i8] c"Experimental feature: the presence of a `$ge' cell attached to the registered\0A\00", align 1
@.str.27 = private unnamed_addr constant [79 x i8] c"P output implementing the operation \22(P >= <power-of-2>)\22 will be transformed\0A\00", align 1
@.str.28 = private unnamed_addr constant [75 x i8] c"into using the DSP48E1's pattern detector feature for overflow detection.\0A\00", align 1
@.str.29 = private unnamed_addr constant [55 x i8] c"    -family {xcup|xcu|xc7|xc6v|xc5v|xc4v|xc6s|xc3sda}\0A\00", align 1
@.str.30 = private unnamed_addr constant [37 x i8] c"        select the family to target\0A\00", align 1
@.str.31 = private unnamed_addr constant [22 x i8] c"        default: xc7\0A\00", align 1

; Function Attrs: mustprogress uwtable
define internal void @_ZN12_GLOBAL__N_113XilinxDspPass4helpEv(ptr noundef nonnull align 8 dereferenceable(104) %0) unnamed_addr #4 align 2 {
  %2 = alloca ptr, align 8
  store ptr %0, ptr %2, align 8, !tbaa !6
  call void (ptr, ...) @_ZN5Yosys3logEPKcz(ptr noundef @.str.4)
  call void (ptr, ...) @_ZN5Yosys3logEPKcz(ptr noundef @.str.5)
  call void (ptr, ...) @_ZN5Yosys3logEPKcz(ptr noundef @.str.4)
  call void (ptr, ...) @_ZN5Yosys3logEPKcz(ptr noundef @.str.6)
  call void (ptr, ...) @_ZN5Yosys3logEPKcz(ptr noundef @.str.7)
  call void (ptr, ...) @_ZN5Yosys3logEPKcz(ptr noundef @.str.8)
  call void (ptr, ...) @_ZN5Yosys3logEPKcz(ptr noundef @.str.4)
  call void (ptr, ...) @_ZN5Yosys3logEPKcz(ptr noundef @.str.9)
  call void (ptr, ...) @_ZN5Yosys3logEPKcz(ptr noundef @.str.10)
  call void (ptr, ...) @_ZN5Yosys3logEPKcz(ptr noundef @.str.11)
  call void (ptr, ...) @_ZN5Yosys3logEPKcz(ptr noundef @.str.12)
  call void (ptr, ...) @_ZN5Yosys3logEPKcz(ptr noundef @.str.4)
  call void (ptr, ...) @_ZN5Yosys3logEPKcz(ptr noundef @.str.13)
  call void (ptr, ...) @_ZN5Yosys3logEPKcz(ptr noundef @.str.14)
  call void (ptr, ...) @_ZN5Yosys3logEPKcz(ptr noundef @.str.15)
  call void (ptr, ...) @_ZN5Yosys3logEPKcz(ptr noundef @.str.16)
  call void (ptr, ...) @_ZN5Yosys3logEPKcz(ptr noundef @.str.17)
  call void (ptr, ...) @_ZN5Yosys3logEPKcz(ptr noundef @.str.18)
  call void (ptr, ...) @_ZN5Yosys3logEPKcz(ptr noundef @.str.19)
  call void (ptr, ...) @_ZN5Yosys3logEPKcz(ptr noundef @.str.4)
  call void (ptr, ...) @_ZN5Yosys3logEPKcz(ptr noundef @.str.20)
  call void (ptr, ...) @_ZN5Yosys3logEPKcz(ptr noundef @.str.21)
  call void (ptr, ...) @_ZN5Yosys3logEPKcz(ptr noundef @.str.4)
  call void (ptr, ...) @_ZN5Yosys3logEPKcz(ptr noundef @.str.4)
  call void (ptr, ...) @_ZN5Yosys3logEPKcz(ptr noundef @.str.22)
  call void (ptr, ...) @_ZN5Yosys3logEPKcz(ptr noundef @.str.23)
  call void (ptr, ...) @_ZN5Yosys3logEPKcz(ptr noundef @.str.24)
  call void (ptr, ...) @_ZN5Yosys3logEPKcz(ptr noundef @.str.25)
  call void (ptr, ...) @_ZN5Yosys3logEPKcz(ptr noundef @.str.4)
  call void (ptr, ...) @_ZN5Yosys3logEPKcz(ptr noundef @.str.26)
  call void (ptr, ...) @_ZN5Yosys3logEPKcz(ptr noundef @.str.27)
  call void (ptr, ...) @_ZN5Yosys3logEPKcz(ptr noundef @.str.28)
  call void (ptr, ...) @_ZN5Yosys3logEPKcz(ptr noundef @.str.4)
  call void (ptr, ...) @_ZN5Yosys3logEPKcz(ptr noundef @.str.29)
  call void (ptr, ...) @_ZN5Yosys3logEPKcz(ptr noundef @.str.30)
  call void (ptr, ...) @_ZN5Yosys3logEPKcz(ptr noundef @.str.31)
  call void (ptr, ...) @_ZN5Yosys3logEPKcz(ptr noundef @.str.4)
  ret void
}